target datalayout = "e-m:e-p270:32:32-p271:32:32-p272:64:64-i64:64-i128:128-f80:128-n8:16:32:64-S128"
target triple = "x86_64-pc-linux-gnu"

; Function Attrs: mustprogress uwtable
define void @_ZN6duckdb12ColumnReader6FilterEmPhS1_RNS_6VectorERKNS_11TableFilterERNS_15SelectionVectorERmb(ptr noundef nonnull align 8 dereferenceable(544) %0, i64 noundef %1, ptr noundef %2, ptr noundef %3, ptr noundef nonnull align 8 dereferenceable(104) %4, ptr noundef nonnull align 8 dereferenceable(9) %5, ptr noundef nonnull align 8 dereferenceable(24) %6, ptr noundef nonnull align 8 dereferenceable(8) %7, i1 noundef zeroext %8) unnamed_addr #4 align 2 {
  %10 = alloca ptr, align 8
  %11 = alloca i64, align 8
  %12 = alloca ptr, align 8
  %13 = alloca ptr, align 8
  %14 = alloca ptr, align 8
  %15 = alloca ptr, align 8
  %16 = alloca ptr, align 8
  %17 = alloca ptr, align 8
  %18 = alloca i8, align 1
  store ptr %0, ptr %10, align 8, !tbaa !3
  store i64 %1, ptr %11, align 8, !tbaa !245
  store ptr %2, ptr %12, align 8, !tbaa !257
  store ptr %3, ptr %13, align 8, !tbaa !257
  store ptr %4, ptr %14, align 8, !tbaa !263
  store ptr %5, ptr %15, align 8, !tbaa !340
  store ptr %6, ptr %16, align 8, !tbaa !264
  store ptr %7, ptr %17, align 8, !tbaa !365
  %19 = zext i1 %8 to i8
  store i8 %19, ptr %18, align 1, !tbaa !205
  %20 = load ptr, ptr %10, align 8
  %21 = load ptr, ptr %20, align 8, !tbaa !12
  %22 = getelementptr inbounds ptr, ptr %21, i64 11
  %23 = load ptr, ptr %22, align 8
  %24 = call noundef zeroext i1 %23(ptr noundef nonnull align 8 dereferenceable(544) %20)
  br i1 %24, label %25, label %36

25:                                               ; preds = %9
  %26 = load i8, ptr %18, align 1, !tbaa !205, !range !246, !noundef !247
  %27 = trunc i8 %26 to i1
  br i1 %27, label %28, label %36

28:                                               ; preds = %25
  %29 = load i64, ptr %11, align 8, !tbaa !245
  %30 = load ptr, ptr %12, align 8, !tbaa !257
  %31 = load ptr, ptr %13, align 8, !tbaa !257
  %32 = load ptr, ptr %14, align 8, !tbaa !263
  %33 = load ptr, ptr %15, align 8, !tbaa !340
  %34 = load ptr, ptr %16, align 8, !tbaa !264
  %35 = load ptr, ptr %17, align 8, !tbaa !365
  call void @_ZN6duckdb12ColumnReader12DirectFilterEmPhS1_RNS_6VectorERKNS_11TableFilterERNS_15SelectionVectorERm(ptr noundef nonnull align 8 dereferenceable(544) %20, i64 noundef %29, ptr noundef %30, ptr noundef %31, ptr noundef nonnull align 8 dereferenceable(104) %32, ptr noundef nonnull align 8 dereferenceable(9) %33, ptr noundef nonnull align 8 dereferenceable(24) %34, ptr noundef nonnull align 8 dereferenceable(8) %35)
  br label %52

36:                                               ; preds = %25, %9
  %37 = load i64, ptr %11, align 8, !tbaa !245
  %38 = load ptr, ptr %12, align 8, !tbaa !257
  %39 = load ptr, ptr %13, align 8, !tbaa !257
  %40 = load ptr, ptr %14, align 8, !tbaa !263
  %41 = load ptr, ptr %16, align 8, !tbaa !264
  %42 = load ptr, ptr %17, align 8, !tbaa !365
  %43 = load i64, ptr %42, align 8, !tbaa !245
  %44 = load ptr, ptr %20, align 8, !tbaa !12
  %45 = getelementptr inbounds ptr, ptr %44, i64 4
  %46 = load ptr, ptr %45, align 8
  call void %46(ptr noundef nonnull align 8 dereferenceable(544) %20, i64 noundef %37, ptr noundef %38, ptr noundef %39, ptr noundef nonnull align 8 dereferenceable(104) %40, ptr noundef nonnull align 8 dereferenceable(24) %41, i64 noundef %43)
  %47 = load ptr, ptr %14, align 8, !tbaa !263
  %48 = load ptr, ptr %15, align 8, !tbaa !340
  %49 = load i64, ptr %11, align 8, !tbaa !245
  %50 = load ptr, ptr %16, align 8, !tbaa !264
  %51 = load ptr, ptr %17, align 8, !tbaa !365
  call void @_ZN6duckdb12ColumnReader11ApplyFilterERNS_6VectorERKNS_11TableFilterEmRNS_15SelectionVectorERm(ptr noundef nonnull align 8 dereferenceable(104) %47, ptr noundef nonnull align 8 dereferenceable(9) %48, i64 noundef %49, ptr noundef nonnull align 8 dereferenceable(24) %50, ptr noundef nonnull align 8 dereferenceable(8) %51)
  br label %52

52:                                               ; preds = %36, %28
  ret void
}