; Function Attrs: mustprogress uwtable
define void @_ZN6duckdb12ColumnReader6FilterEmPhS1_RNS_6VectorERKNS_11TableFilterERNS_15SelectionVectorERmb(ptr noundef nonnull align 8 dereferenceable(544) %0, i64 noundef %1, ptr noundef %2, ptr noundef %3, ptr noundef nonnull align 8 dereferenceable(104) %4, ptr noundef nonnull align 8 dereferenceable(9) %5, ptr noundef nonnull align 8 dereferenceable(24) %6, ptr noundef nonnull align 8 dereferenceable(8) %7, i1 noundef zeroext %8) unnamed_addr #3 align 2 {
  %10 = load ptr, ptr %0, align 8, !tbaa !3
  %11 = getelementptr inbounds nuw i8, ptr %10, i64 88
  %12 = load ptr, ptr %11, align 8
  %13 = tail call noundef zeroext i1 %12(ptr noundef nonnull align 8 dereferenceable(544) %0)
  %brmerge.demorgan = and i1 %8, %13
  br i1 %brmerge.demorgan, label %14, label %15

14:                                               ; preds = %9
  tail call void @_ZN6duckdb12ColumnReader12DirectFilterEmPhS1_RNS_6VectorERKNS_11TableFilterERNS_15SelectionVectorERm(ptr noundef nonnull align 8 dereferenceable(544) %0, i64 noundef %1, ptr noundef %2, ptr noundef %3, ptr noundef nonnull align 8 dereferenceable(104) %4, ptr noundef nonnull align 8 dereferenceable(9) %5, ptr noundef nonnull align 8 dereferenceable(24) %6, ptr noundef nonnull align 8 dereferenceable(8) %7)
  br label %20

15:                                               ; preds = %9
  %16 = load i64, ptr %7, align 8, !tbaa !241
  %17 = load ptr, ptr %0, align 8, !tbaa !3
  %18 = getelementptr inbounds nuw i8, ptr %17, i64 32
  %19 = load ptr, ptr %18, align 8
  tail call void %19(ptr noundef nonnull align 8 dereferenceable(544) %0, i64 noundef %1, ptr noundef %2, ptr noundef %3, ptr noundef nonnull align 8 dereferenceable(104) %4, ptr noundef nonnull align 8 dereferenceable(24) %6, i64 noundef %16)
  tail call void @_ZN6duckdb12ColumnReader11ApplyFilterERNS_6VectorERKNS_11TableFilterEmRNS_15SelectionVectorERm(ptr noundef nonnull align 8 dereferenceable(104) %4, ptr noundef nonnull align 8 dereferenceable(9) %5, i64 noundef %1, ptr noundef nonnull align 8 dereferenceable(24) %6, ptr noundef nonnull align 8 dereferenceable(8) %7)
  br label %20

20:                                               ; preds = %15, %14
  ret void
}